target datalayout = "e-m:e-p270:32:32-p271:32:32-p272:64:64-i64:64-i128:128-f80:128-n8:16:32:64-S128"
target triple = "x86_64-pc-linux-gnu"

%struct.RelationData = type { %struct.RelFileLocator, ptr, i32, i32, i8, i8, i8, i8, i8, i32, i32, i32, i32, ptr, ptr, i32, %struct.LockInfoData, ptr, ptr, ptr, ptr, ptr, i8, ptr, ptr, ptr, ptr, ptr, ptr, i32, ptr, i8, ptr, ptr, i32, i8, i32, ptr, i8, ptr, ptr, ptr, ptr, ptr, ptr, ptr, i32, ptr, ptr, ptr, ptr, ptr, ptr, ptr, ptr, ptr, ptr, ptr, ptr, ptr, ptr, ptr, ptr, ptr, ptr, ptr, i32, i8, ptr }
%struct.RelFileLocator = type { i32, i32, i32 }
%struct.LockInfoData = type { %struct.LockRelId }
%struct.LockRelId = type { i32, i32 }

; Function Attrs: nounwind uwtable
define dso_local i32 @RelationGetPrimaryKeyIndex(ptr noundef %0, i1 noundef zeroext %1) #0 {
  %3 = alloca i32, align 4
  %4 = alloca ptr, align 8
  %5 = alloca i8, align 1
  %6 = alloca ptr, align 8
  %7 = alloca i32, align 4
  store ptr %0, ptr %4, align 8
  %8 = zext i1 %1 to i8
  store i8 %8, ptr %5, align 1
  call void @llvm.lifetime.start.p0(i64 8, ptr %6) #11
  %9 = load ptr, ptr %4, align 8
  %10 = getelementptr inbounds nuw %struct.RelationData, ptr %9, i32 0, i32 7
  %11 = load i8, ptr %10, align 1, !range !4, !noundef !5
  %12 = trunc i8 %11 to i1
  br i1 %12, label %17, label %13

13:                                               ; preds = %2
  %14 = load ptr, ptr %4, align 8
  %15 = call ptr @RelationGetIndexList(ptr noundef %14)
  store ptr %15, ptr %6, align 8
  %16 = load ptr, ptr %6, align 8
  call void @list_free(ptr noundef %16)
  br label %17

17:                                               ; preds = %13, %2
  %18 = load i8, ptr %5, align 1, !range !4, !noundef !5
  %19 = trunc i8 %18 to i1
  br i1 %19, label %20, label %24

20:                                               ; preds = %17
  %21 = load ptr, ptr %4, align 8
  %22 = getelementptr inbounds nuw %struct.RelationData, ptr %21, i32 0, i32 34
  %23 = load i32, ptr %22, align 8
  store i32 %23, ptr %3, align 4
  store i32 1, ptr %7, align 4
  br label %35

24:                                               ; preds = %17
  %25 = load ptr, ptr %4, align 8
  %26 = getelementptr inbounds nuw %struct.RelationData, ptr %25, i32 0, i32 35
  %27 = load i8, ptr %26, align 4, !range !4, !noundef !5
  %28 = trunc i8 %27 to i1
  br i1 %28, label %29, label %30

29:                                               ; preds = %24
  store i32 0, ptr %3, align 4
  store i32 1, ptr %7, align 4
  br label %35

30:                                               ; preds = %24
  br label %31

31:                                               ; preds = %30
  %32 = load ptr, ptr %4, align 8
  %33 = getelementptr inbounds nuw %struct.RelationData, ptr %32, i32 0, i32 34
  %34 = load i32, ptr %33, align 8
  store i32 %34, ptr %3, align 4
  store i32 1, ptr %7, align 4
  br label %35

35:                                               ; preds = %31, %29, %20
  call void @llvm.lifetime.end.p0(i64 8, ptr %6) #11
  %36 = load i32, ptr %3, align 4
  ret i32 %36
}