; Function Attrs: nounwind uwtable
define dso_local i32 @RelationGetPrimaryKeyIndex(ptr noundef captures(none) %0, i1 noundef zeroext %1) local_unnamed_addr #0 {
  %3 = getelementptr inbounds nuw i8, ptr %0, i64 35
  %4 = load i8, ptr %3, align 1, !range !6, !noundef !7
  %5 = trunc nuw i8 %4 to i1
  br i1 %5, label %8, label %6

6:                                                ; preds = %2
  %7 = tail call ptr @RelationGetIndexList(ptr noundef nonnull %0)
  tail call void @list_free(ptr noundef %7) #13
  br label %8

8:                                                ; preds = %6, %2
  br i1 %1, label %.sink.split, label %9

9:                                                ; preds = %8
  %10 = getelementptr inbounds nuw i8, ptr %0, i64 228
  %11 = load i8, ptr %10, align 4, !range !6, !noundef !7
  %12 = trunc nuw i8 %11 to i1
  br i1 %12, label %15, label %.sink.split

.sink.split:                                      ; preds = %9, %8
  %13 = getelementptr inbounds nuw i8, ptr %0, i64 224
  %14 = load i32, ptr %13, align 8
  br label %15

15:                                               ; preds = %.sink.split, %9
  %.0 = phi i32 [ 0, %9 ], [ %14, %.sink.split ]
  ret i32 %.0
}